; Function Attrs: nofree norecurse nosync nounwind memory(argmem: readwrite) uwtable
define internal void @put_pixels8x8_c(ptr noundef writeonly captures(none) %0, ptr noundef readonly captures(none) %1, i64 noundef %2, i32 %3) #1 {
  br label %5

5:                                                ; preds = %4, %5
  %.013 = phi i32 [ 0, %4 ], [ %12, %5 ]
  %.0912 = phi ptr [ %0, %4 ], [ %11, %5 ]
  %.01011 = phi ptr [ %1, %4 ], [ %10, %5 ]
  %6 = load i32, ptr %.01011, align 1, !tbaa !40
  store i32 %6, ptr %.0912, align 4, !tbaa !54
  %7 = getelementptr inbounds nuw i8, ptr %.01011, i64 4
  %8 = load i32, ptr %7, align 1, !tbaa !40
  %9 = getelementptr inbounds nuw i8, ptr %.0912, i64 4
  store i32 %8, ptr %9, align 4, !tbaa !54
  %10 = getelementptr inbounds i8, ptr %.01011, i64 %2
  %11 = getelementptr inbounds i8, ptr %.0912, i64 %2
  %12 = add nuw nsw i32 %.013, 1
  %exitcond.not = icmp eq i32 %12, 8
  br i1 %exitcond.not, label %13, label %5, !llvm.loop !58

13:                                               ; preds = %5
  ret void
}